; Function Attrs: mustprogress nofree norecurse nosync nounwind willreturn memory(read, argmem: none, inaccessiblemem: none) uwtable
define hidden i64 @_mi_os_good_alloc_size(i64 noundef %0) local_unnamed_addr #0 {
  %2 = icmp ult i64 %0, 524288
  br i1 %2, label %3, label %5

3:                                                ; preds = %1
  %4 = load i64, ptr @mi_os_mem_config, align 8, !tbaa !12
  br label %11

5:                                                ; preds = %1
  %6 = icmp ult i64 %0, 2097152
  br i1 %6, label %11, label %7

7:                                                ; preds = %5
  %8 = icmp ult i64 %0, 8388608
  br i1 %8, label %11, label %9

9:                                                ; preds = %7
  %10 = icmp ult i64 %0, 33554432
  %. = select i1 %10, i64 1048576, i64 4194304
  br label %11

11:                                               ; preds = %9, %7, %5, %3
  %.0 = phi i64 [ %4, %3 ], [ 65536, %5 ], [ 262144, %7 ], [ %., %9 ]
  %12 = xor i64 %.0, -1
  %.not = icmp ult i64 %0, %12
  br i1 %.not, label %13, label %_mi_align_up.exit, !prof !14

13:                                               ; preds = %11
  %14 = tail call range(i64 0, 65) i64 @llvm.ctpop.i64(i64 %.0)
  %15 = icmp samesign ult i64 %14, 2
  %16 = add i64 %0, -1
  %17 = add i64 %16, %.0
  br i1 %15, label %18, label %21

18:                                               ; preds = %13
  %19 = sub i64 0, %.0
  %20 = and i64 %17, %19
  br label %_mi_align_up.exit

21:                                               ; preds = %13
  %22 = urem i64 %17, %.0
  %23 = sub nuw i64 %17, %22
  br label %_mi_align_up.exit

_mi_align_up.exit:                                ; preds = %21, %18, %11
  %.010 = phi i64 [ %0, %11 ], [ %20, %18 ], [ %23, %21 ]
  ret i64 %.010
}